target datalayout = "e-m:e-p270:32:32-p271:32:32-p272:64:64-i64:64-i128:128-f80:128-n8:16:32:64-S128"
target triple = "x86_64-pc-linux-gnu"

%struct.OGLContext = type { ptr, i32, i32, float, i32, i32, i8, i8, i8, i8, i32, i8, ptr, i32, i32, i8 }
%struct._OGLSDOps = type { %struct._SurfaceDataOps, ptr, ptr, i32, i32, i8, i8, i32, i32, i32, i32, i32, i32, i32, i32, i32, i32, i32 }
%struct._SurfaceDataOps = type { ptr, ptr, ptr, ptr, ptr, ptr, ptr }

@j2d_glActiveTextureARB = external global ptr, align 8
@j2d_glTexParameteri = external global ptr, align 8
@j2d_glTexEnvi = external global ptr, align 8
@j2d_glEnable = external global ptr, align 8
@j2d_glBindTexture = external global ptr, align 8
@j2d_glTexGeni = external global ptr, align 8
@j2d_glTexGendv = external global ptr, align 8

; Function Attrs: nounwind uwtable
define hidden void @OGLPaints_SetTexturePaint(ptr noundef %0, i8 noundef zeroext %1, i64 noundef %2, i8 noundef zeroext %3, double noundef %4, double noundef %5, double noundef %6, double noundef %7, double noundef %8, double noundef %9) #0 {
  %11 = alloca ptr, align 8
  %12 = alloca i8, align 1
  %13 = alloca i64, align 8
  %14 = alloca i8, align 1
  %15 = alloca double, align 8
  %16 = alloca double, align 8
  %17 = alloca double, align 8
  %18 = alloca double, align 8
  %19 = alloca double, align 8
  %20 = alloca double, align 8
  %21 = alloca ptr, align 8
  %22 = alloca [4 x double], align 16
  %23 = alloca [4 x double], align 16
  %24 = alloca i32, align 4
  store ptr %0, ptr %11, align 8
  store i8 %1, ptr %12, align 1
  store i64 %2, ptr %13, align 8
  store i8 %3, ptr %14, align 1
  store double %4, ptr %15, align 8
  store double %5, ptr %16, align 8
  store double %6, ptr %17, align 8
  store double %7, ptr %18, align 8
  store double %8, ptr %19, align 8
  store double %9, ptr %20, align 8
  %25 = load i64, ptr %13, align 8
  %26 = inttoptr i64 %25 to ptr
  store ptr %26, ptr %21, align 8
  %27 = load i8, ptr %14, align 1
  %28 = zext i8 %27 to i32
  %29 = icmp ne i32 %28, 0
  %30 = select i1 %29, i32 9729, i32 9728
  store i32 %30, ptr %24, align 4
  %31 = load ptr, ptr %21, align 8
  %32 = icmp eq ptr %31, null
  br i1 %32, label %33, label %34

33:                                               ; preds = %10
  br label %131

34:                                               ; preds = %10
  br label %35

35:                                               ; preds = %34
  br label %36

36:                                               ; preds = %35
  br label %37

37:                                               ; preds = %36
  %38 = load ptr, ptr %11, align 8
  %39 = icmp eq ptr %38, null
  br i1 %39, label %40, label %41

40:                                               ; preds = %37
  br label %131

41:                                               ; preds = %37
  br label %42

42:                                               ; preds = %41
  br label %43

43:                                               ; preds = %42
  br label %44

44:                                               ; preds = %43
  %45 = load ptr, ptr %11, align 8
  call void @OGLPaints_ResetPaint(ptr noundef %45)
  %46 = load double, ptr %15, align 8
  %47 = getelementptr inbounds [4 x double], ptr %22, i64 0, i64 0
  store double %46, ptr %47, align 16
  %48 = load double, ptr %16, align 8
  %49 = getelementptr inbounds [4 x double], ptr %22, i64 0, i64 1
  store double %48, ptr %49, align 8
  %50 = getelementptr inbounds [4 x double], ptr %22, i64 0, i64 2
  store double 0.000000e+00, ptr %50, align 16
  %51 = load double, ptr %17, align 8
  %52 = getelementptr inbounds [4 x double], ptr %22, i64 0, i64 3
  store double %51, ptr %52, align 8
  %53 = load double, ptr %18, align 8
  %54 = getelementptr inbounds [4 x double], ptr %23, i64 0, i64 0
  store double %53, ptr %54, align 16
  %55 = load double, ptr %19, align 8
  %56 = getelementptr inbounds [4 x double], ptr %23, i64 0, i64 1
  store double %55, ptr %56, align 8
  %57 = getelementptr inbounds [4 x double], ptr %23, i64 0, i64 2
  store double 0.000000e+00, ptr %57, align 16
  %58 = load double, ptr %20, align 8
  %59 = getelementptr inbounds [4 x double], ptr %23, i64 0, i64 3
  store double %58, ptr %59, align 8
  %60 = load i8, ptr %12, align 1
  %61 = icmp ne i8 %60, 0
  br i1 %61, label %62, label %65

62:                                               ; preds = %44
  %63 = load ptr, ptr @j2d_glActiveTextureARB, align 8
  call void %63(i32 noundef 33985)
  %64 = load ptr, ptr @j2d_glTexEnvi, align 8
  call void %64(i32 noundef 8960, i32 noundef 8704, i32 noundef 8448)
  br label %79

65:                                               ; preds = %44
  br label %66

66:                                               ; preds = %65
  %67 = load ptr, ptr %11, align 8
  %68 = getelementptr inbounds %struct.OGLContext, ptr %67, i32 0, i32 14
  %69 = load i32, ptr %68, align 4
  %70 = icmp ne i32 %69, 8448
  br i1 %70, label %71, label %77

71:                                               ; preds = %66
  br label %72

72:                                               ; preds = %71
  %73 = load ptr, ptr @j2d_glTexEnvi, align 8
  call void %73(i32 noundef 8960, i32 noundef 8704, i32 noundef 8448)
  %74 = load ptr, ptr %11, align 8
  %75 = getelementptr inbounds %struct.OGLContext, ptr %74, i32 0, i32 14
  store i32 8448, ptr %75, align 4
  br label %76

76:                                               ; preds = %72
  br label %77

77:                                               ; preds = %76, %66
  br label %78

78:                                               ; preds = %77
  br label %79

79:                                               ; preds = %78, %62
  %80 = load ptr, ptr @j2d_glEnable, align 8
  call void %80(i32 noundef 3553)
  %81 = load ptr, ptr @j2d_glEnable, align 8
  call void %81(i32 noundef 3168)
  %82 = load ptr, ptr @j2d_glEnable, align 8
  call void %82(i32 noundef 3169)
  %83 = load ptr, ptr @j2d_glBindTexture, align 8
  %84 = load ptr, ptr %21, align 8
  %85 = getelementptr inbounds %struct._OGLSDOps, ptr %84, i32 0, i32 11
  %86 = load i32, ptr %85, align 4
  call void %83(i32 noundef 3553, i32 noundef %86)
  br label %87

87:                                               ; preds = %79
  %88 = load ptr, ptr %21, align 8
  %89 = getelementptr inbounds %struct._OGLSDOps, ptr %88, i32 0, i32 15
  %90 = load i32, ptr %89, align 4
  %91 = load i32, ptr %24, align 4
  %92 = icmp ne i32 %90, %91
  br i1 %92, label %93, label %109

93:                                               ; preds = %87
  br label %94

94:                                               ; preds = %93
  %95 = load ptr, ptr @j2d_glTexParameteri, align 8
  %96 = load ptr, ptr %21, align 8
  %97 = getelementptr inbounds %struct._OGLSDOps, ptr %96, i32 0, i32 14
  %98 = load i32, ptr %97, align 8
  %99 = load i32, ptr %24, align 4
  call void %95(i32 noundef %98, i32 noundef 10240, i32 noundef %99)
  %100 = load ptr, ptr @j2d_glTexParameteri, align 8
  %101 = load ptr, ptr %21, align 8
  %102 = getelementptr inbounds %struct._OGLSDOps, ptr %101, i32 0, i32 14
  %103 = load i32, ptr %102, align 8
  %104 = load i32, ptr %24, align 4
  call void %100(i32 noundef %103, i32 noundef 10241, i32 noundef %104)
  %105 = load i32, ptr %24, align 4
  %106 = load ptr, ptr %21, align 8
  %107 = getelementptr inbounds %struct._OGLSDOps, ptr %106, i32 0, i32 15
  store i32 %105, ptr %107, align 4
  br label %108

108:                                              ; preds = %94
  br label %109

109:                                              ; preds = %108, %87
  br label %110

110:                                              ; preds = %109
  br label %111

111:                                              ; preds = %110
  %112 = load ptr, ptr @j2d_glTexParameteri, align 8
  call void %112(i32 noundef 3553, i32 noundef 10242, i32 noundef 10497)
  %113 = load ptr, ptr @j2d_glTexParameteri, align 8
  call void %113(i32 noundef 3553, i32 noundef 10243, i32 noundef 10497)
  br label %114

114:                                              ; preds = %111
  %115 = load ptr, ptr @j2d_glTexGeni, align 8
  call void %115(i32 noundef 8192, i32 noundef 9472, i32 noundef 9217)
  %116 = load ptr, ptr @j2d_glTexGendv, align 8
  %117 = getelementptr inbounds [4 x double], ptr %22, i64 0, i64 0
  call void %116(i32 noundef 8192, i32 noundef 9473, ptr noundef %117)
  %118 = load ptr, ptr @j2d_glTexGeni, align 8
  call void %118(i32 noundef 8193, i32 noundef 9472, i32 noundef 9217)
  %119 = load ptr, ptr @j2d_glTexGendv, align 8
  %120 = getelementptr inbounds [4 x double], ptr %23, i64 0, i64 0
  call void %119(i32 noundef 8193, i32 noundef 9473, ptr noundef %120)
  %121 = load i8, ptr %12, align 1
  %122 = icmp ne i8 %121, 0
  br i1 %122, label %123, label %125

123:                                              ; preds = %114
  %124 = load ptr, ptr @j2d_glActiveTextureARB, align 8
  call void %124(i32 noundef 33984)
  br label %125

125:                                              ; preds = %123, %114
  %126 = load i8, ptr %12, align 1
  %127 = load ptr, ptr %11, align 8
  %128 = getelementptr inbounds %struct.OGLContext, ptr %127, i32 0, i32 11
  store i8 %126, ptr %128, align 4
  %129 = load ptr, ptr %11, align 8
  %130 = getelementptr inbounds %struct.OGLContext, ptr %129, i32 0, i32 10
  store i32 5, ptr %130, align 8
  br label %131

131:                                              ; preds = %125, %40, %33
  ret void
}