; Function Attrs: nounwind uwtable
define hidden void @OGLPaints_SetTexturePaint(ptr noundef %0, i8 noundef zeroext %1, i64 noundef %2, i8 noundef zeroext %3, double noundef %4, double noundef %5, double noundef %6, double noundef %7, double noundef %8, double noundef %9) local_unnamed_addr #0 {
  %11 = alloca [4 x double], align 16
  %12 = alloca [4 x double], align 16
  %13 = inttoptr i64 %2 to ptr
  %.not = icmp eq i8 %3, 0
  %14 = select i1 %.not, i32 9728, i32 9729
  %15 = icmp eq i64 %2, 0
  %16 = icmp eq ptr %0, null
  %or.cond = or i1 %16, %15
  br i1 %or.cond, label %59, label %17

17:                                               ; preds = %10
  tail call void @OGLPaints_ResetPaint(ptr noundef nonnull %0)
  store double %4, ptr %11, align 16
  %18 = getelementptr inbounds i8, ptr %11, i64 8
  store double %5, ptr %18, align 8
  %19 = getelementptr inbounds i8, ptr %11, i64 16
  store double 0.000000e+00, ptr %19, align 16
  %20 = getelementptr inbounds i8, ptr %11, i64 24
  store double %6, ptr %20, align 8
  store double %7, ptr %12, align 16
  %21 = getelementptr inbounds i8, ptr %12, i64 8
  store double %8, ptr %21, align 8
  %22 = getelementptr inbounds i8, ptr %12, i64 16
  store double 0.000000e+00, ptr %22, align 16
  %23 = getelementptr inbounds i8, ptr %12, i64 24
  store double %9, ptr %23, align 8
  %.not29 = icmp eq i8 %1, 0
  br i1 %.not29, label %27, label %24

24:                                               ; preds = %17
  %25 = load ptr, ptr @j2d_glActiveTextureARB, align 8
  tail call void %25(i32 noundef 33985) #6
  %26 = load ptr, ptr @j2d_glTexEnvi, align 8
  tail call void %26(i32 noundef 8960, i32 noundef 8704, i32 noundef 8448) #6
  br label %32

27:                                               ; preds = %17
  %28 = getelementptr inbounds i8, ptr %0, i64 52
  %29 = load i32, ptr %28, align 4
  %.not30 = icmp eq i32 %29, 8448
  br i1 %.not30, label %32, label %30

30:                                               ; preds = %27
  %31 = load ptr, ptr @j2d_glTexEnvi, align 8
  tail call void %31(i32 noundef 8960, i32 noundef 8704, i32 noundef 8448) #6
  store i32 8448, ptr %28, align 4
  br label %32

32:                                               ; preds = %30, %27, %24
  %33 = load ptr, ptr @j2d_glEnable, align 8
  tail call void %33(i32 noundef 3553) #6
  %34 = load ptr, ptr @j2d_glEnable, align 8
  tail call void %34(i32 noundef 3168) #6
  %35 = load ptr, ptr @j2d_glEnable, align 8
  tail call void %35(i32 noundef 3169) #6
  %36 = load ptr, ptr @j2d_glBindTexture, align 8
  %37 = getelementptr inbounds i8, ptr %13, i64 100
  %38 = load i32, ptr %37, align 4
  tail call void %36(i32 noundef 3553, i32 noundef %38) #6
  %39 = getelementptr inbounds i8, ptr %13, i64 116
  %40 = load i32, ptr %39, align 4
  %.not31 = icmp eq i32 %40, %14
  br i1 %.not31, label %47, label %41

41:                                               ; preds = %32
  %42 = load ptr, ptr @j2d_glTexParameteri, align 8
  %43 = getelementptr inbounds i8, ptr %13, i64 112
  %44 = load i32, ptr %43, align 8
  tail call void %42(i32 noundef %44, i32 noundef 10240, i32 noundef %14) #6
  %45 = load ptr, ptr @j2d_glTexParameteri, align 8
  %46 = load i32, ptr %43, align 8
  tail call void %45(i32 noundef %46, i32 noundef 10241, i32 noundef %14) #6
  store i32 %14, ptr %39, align 4
  br label %47

47:                                               ; preds = %41, %32
  %48 = load ptr, ptr @j2d_glTexParameteri, align 8
  tail call void %48(i32 noundef 3553, i32 noundef 10242, i32 noundef 10497) #6
  %49 = load ptr, ptr @j2d_glTexParameteri, align 8
  tail call void %49(i32 noundef 3553, i32 noundef 10243, i32 noundef 10497) #6
  %50 = load ptr, ptr @j2d_glTexGeni, align 8
  tail call void %50(i32 noundef 8192, i32 noundef 9472, i32 noundef 9217) #6
  %51 = load ptr, ptr @j2d_glTexGendv, align 8
  call void %51(i32 noundef 8192, i32 noundef 9473, ptr noundef nonnull %11) #6
  %52 = load ptr, ptr @j2d_glTexGeni, align 8
  call void %52(i32 noundef 8193, i32 noundef 9472, i32 noundef 9217) #6
  %53 = load ptr, ptr @j2d_glTexGendv, align 8
  call void %53(i32 noundef 8193, i32 noundef 9473, ptr noundef nonnull %12) #6
  br i1 %.not29, label %56, label %54

54:                                               ; preds = %47
  %55 = load ptr, ptr @j2d_glActiveTextureARB, align 8
  call void %55(i32 noundef 33984) #6
  br label %56

56:                                               ; preds = %54, %47
  %57 = getelementptr inbounds i8, ptr %0, i64 36
  store i8 %1, ptr %57, align 4
  %58 = getelementptr inbounds i8, ptr %0, i64 32
  store i32 5, ptr %58, align 8
  br label %59

59:                                               ; preds = %10, %56
  ret void
}